target datalayout = "e-m:e-p270:32:32-p271:32:32-p272:64:64-i64:64-i128:128-f80:128-n8:16:32:64-S128"
target triple = "x86_64-pc-linux-gnu"

%struct.curl_trc_feat = type { ptr, i32 }
%struct.connectdata = type { %struct.Curl_llist_node, ptr, ptr, i64, ptr, i64, ptr, ptr, %struct.hostname, ptr, ptr, %struct.hostname, %struct.proxy_info, %struct.proxy_info, %struct.ip_quadruple, %struct.ip_quadruple, ptr, ptr, ptr, ptr, ptr, %struct.curltime, %struct.curltime, %struct.curltime, [2 x i32], [2 x ptr], [2 x ptr], [2 x ptr], %struct.anon, %struct.easy_pollset, %struct.ssl_primary_config, %struct.ssl_primary_config, %struct.ConnectBits, ptr, ptr, %struct.curltime, i32, i32, %struct.Curl_llist, i32, i32, %struct.ntlmdata, %struct.ntlmdata, %union.anon.1, ptr, ptr, i16, i32, i32, i32, i32, i16, i16, i8, i8, i8, i8, i8, i8, i8 }
%struct.Curl_llist_node = type { ptr, ptr, ptr, ptr }
%struct.hostname = type { ptr, ptr, ptr, ptr }
%struct.proxy_info = type { %struct.hostname, i32, i8, ptr, ptr }
%struct.ip_quadruple = type { [46 x i8], [46 x i8], i32, i32 }
%struct.anon = type { [2 x %struct.curltime], i32 }
%struct.easy_pollset = type { [5 x i32], i32, [5 x i8] }
%struct.ssl_primary_config = type { ptr, ptr, ptr, ptr, ptr, ptr, ptr, ptr, ptr, ptr, ptr, ptr, ptr, ptr, i8, i32, i8, i8 }
%struct.ConnectBits = type { i64 }
%struct.curltime = type { i64, i32 }
%struct.Curl_llist = type { ptr, ptr, ptr, i64 }
%struct.ntlmdata = type { i32, [8 x i8], i32, ptr }
%union.anon.1 = type { %struct.ftp_conn }
%struct.ftp_conn = type { %struct.pingpong, ptr, ptr, ptr, ptr, ptr, ptr, ptr, i8, i64, ptr, i64, i32, i32, i32, i32, i32, i16, i8, i8, i8, i8, i8 }
%struct.pingpong = type { i64, i8, ptr, i64, i64, %struct.curltime, i64, %struct.dynbuf, %struct.dynbuf, i64, i64, ptr, ptr }
%struct.dynbuf = type { ptr, i64, i64, i64 }
%struct.Curl_easy = type { i32, i64, i64, ptr, %struct.Curl_llist_node, %struct.Curl_llist_node, i32, i32, %struct.Curl_message, %struct.easy_pollset, %struct.Names, ptr, ptr, ptr, ptr, %struct.SingleRequest, %struct.UserDefined, ptr, ptr, ptr, %struct.Progress, %struct.UrlState, ptr, %struct.PureInfo, %struct.curl_tlssessioninfo }
%struct.Curl_message = type { %struct.Curl_llist_node, %struct.CURLMsg }
%struct.CURLMsg = type { i32, ptr, %union.anon }
%union.anon = type { ptr }
%struct.Names = type { ptr, i32 }
%struct.SingleRequest = type <{ i64, i64, i64, i64, %struct.curltime, i32, i32, i32, i32, i64, i32, i32, i8, i8, [2 x i8], i32, ptr, ptr, %struct.bufq, i64, i64, ptr, ptr, %union.anon.0, ptr, i8, i32, [3 x i8] }>
%struct.bufq = type { ptr, ptr, ptr, ptr, i64, i64, i64, i32 }
%union.anon.0 = type { ptr }
%struct.UserDefined = type <{ ptr, ptr, ptr, ptr, ptr, ptr, i64, i64, i64, ptr, ptr, i64, ptr, ptr, ptr, ptr, ptr, ptr, ptr, ptr, ptr, ptr, ptr, ptr, ptr, ptr, ptr, ptr, ptr, ptr, ptr, ptr, ptr, ptr, ptr, i64, i64, i64, i64, i64, i64, i64, i64, i64, ptr, ptr, %struct.curl_mimepart, ptr, ptr, ptr, i64, %struct.ssl_config_data, %struct.ssl_config_data, ptr, i16, i8, i8, %struct.ssl_general_config, i32, i32, i32, [4 x i8], ptr, ptr, i64, i32, i8, i8, i8, i8, ptr, ptr, ptr, i32, [4 x i8], [74 x ptr], [8 x ptr], i32, i32, i32, [4 x i8], ptr, i32, [4 x i8], ptr, ptr, ptr, ptr, ptr, i32, i32, i32, i32, i32, i32, i32, i32, i64, ptr, ptr, i64, ptr, i64, ptr, ptr, ptr, ptr, i32, i16, i16, i16, i8, i8, i8, i8, i8, i8, i8, i8, i64, [6 x i8] }>
%struct.curl_mimepart = type { ptr, ptr, i32, i32, ptr, ptr, ptr, ptr, ptr, ptr, ptr, ptr, ptr, ptr, ptr, i64, %struct.mime_state, ptr, %struct.mime_encoder_state, i64 }
%struct.mime_state = type { i32, ptr, i64 }
%struct.mime_encoder_state = type { i64, i64, i64, [256 x i8] }
%struct.ssl_config_data = type { %struct.ssl_primary_config, i64, ptr, ptr, ptr, ptr, ptr, ptr, ptr, i16 }
%struct.ssl_general_config = type { i32 }
%struct.Progress = type { i64, %struct.pgrs_dir, %struct.pgrs_dir, i64, i64, i32, i32, i64, i64, i64, i64, i64, i64, i64, i64, i64, %struct.curltime, %struct.curltime, %struct.curltime, %struct.curltime, %struct.curltime, [6 x i64], [6 x %struct.curltime], i32, i8 }
%struct.pgrs_dir = type { i64, i64, i64, %struct.pgrs_measure }
%struct.pgrs_measure = type { %struct.curltime, i64 }
%struct.UrlState = type { %struct.curltime, i64, i64, %struct.dynbuf, ptr, i64, ptr, i32, i32, i32, ptr, i32, i64, i32, ptr, %struct.digestdata, %struct.digestdata, %struct.auth, %struct.auth, %struct.Curl_async, ptr, i8, %struct.curltime, %struct.Curl_tree, %struct.Curl_llist, [15 x %struct.time_node], ptr, ptr, i64, i64, i64, i64, [32 x i8], i64, ptr, ptr, ptr, %struct.urlpieces, ptr, ptr, ptr, ptr, ptr, i64, %struct.dynbuf, %struct.Curl_llist, [2 x %struct.curl_header], ptr, i32, ptr, ptr, %struct.store_netrc, %struct.dynamically_allocated_data, i8, i8, i8, i8, i32 }
%struct.digestdata = type { ptr, ptr, ptr, ptr, ptr, ptr, i32, i8, i8 }
%struct.auth = type { i64, i64, i64, i8 }
%struct.Curl_async = type { ptr, ptr, ptr, ptr, i32, i32, i8 }
%struct.Curl_tree = type { ptr, ptr, ptr, ptr, %struct.curltime, ptr }
%struct.time_node = type { %struct.Curl_llist_node, %struct.curltime, i32 }
%struct.urlpieces = type { ptr, ptr, ptr, ptr, ptr, ptr, ptr, ptr }
%struct.curl_header = type { ptr, ptr, i64, i64, i32, ptr }
%struct.store_netrc = type { %struct.dynbuf, ptr, i8 }
%struct.dynamically_allocated_data = type { ptr, ptr, ptr, ptr, ptr, ptr, ptr, ptr, ptr, ptr, ptr, ptr, ptr, ptr }
%struct.PureInfo = type { i32, i32, i32, i64, i64, i64, i64, i64, i64, i64, ptr, ptr, i64, i32, %struct.ip_quadruple, i32, ptr, i32, %struct.curl_certinfo, i32, i8 }
%struct.curl_certinfo = type { i32, ptr }
%struct.curl_tlssessioninfo = type { i32, ptr }
%struct.SMTP = type { i32, ptr, ptr, i32, i64, i8 }
%struct.smtp_conn = type { %struct.pingpong, %struct.SASL, i32, ptr, i8 }
%struct.SASL = type { ptr, i32, ptr, i16, i16, i16, i8 }

@Curl_cfree = external global ptr, align 8
@smtp_state.names = internal constant [13 x ptr] [ptr @.str.37, ptr @.str.38, ptr @.str.39, ptr @.str.40, ptr @.str.5, ptr @.str.41, ptr @.str.42, ptr @.str.43, ptr @.str.44, ptr @.str.45, ptr @.str.29, ptr @.str.46, ptr @.str.47], align 16
@Curl_trc_feat_smtp = external global %struct.curl_trc_feat, align 8
@.str.48 = private unnamed_addr constant [27 x i8] c"state change from %s to %s\00", align 1
@.str.49 = private unnamed_addr constant [41 x i8] c"smtp_done(status=%d, premature=%d) -> %d\00", align 1

; Function Attrs: nounwind uwtable
define internal i32 @smtp_block_statemach(ptr noundef %0, ptr noundef %1, i1 noundef zeroext %2) #0 {
  %4 = alloca ptr, align 8
  %5 = alloca ptr, align 8
  %6 = alloca i8, align 1
  %7 = alloca i32, align 4
  %8 = alloca ptr, align 8
  store ptr %0, ptr %4, align 8, !tbaa !3
  store ptr %1, ptr %5, align 8, !tbaa !8
  %9 = zext i1 %2 to i8
  store i8 %9, ptr %6, align 1, !tbaa !83
  call void @llvm.lifetime.start.p0(i64 4, ptr %7) #7
  store i32 0, ptr %7, align 4, !tbaa !10
  call void @llvm.lifetime.start.p0(i64 8, ptr %8) #7
  %10 = load ptr, ptr %5, align 8, !tbaa !8
  %11 = getelementptr inbounds nuw %struct.connectdata, ptr %10, i32 0, i32 43
  store ptr %11, ptr %8, align 8, !tbaa !97
  br label %12

12:                                               ; preds = %23, %3
  %13 = load ptr, ptr %8, align 8, !tbaa !97
  %14 = getelementptr inbounds nuw %struct.smtp_conn, ptr %13, i32 0, i32 2
  %15 = load i32, ptr %14, align 8, !tbaa !105
  %16 = icmp ne i32 %15, 0
  br i1 %16, label %17, label %21

17:                                               ; preds = %12
  %18 = load i32, ptr %7, align 4, !tbaa !10
  %19 = icmp ne i32 %18, 0
  %20 = xor i1 %19, true
  br label %21

21:                                               ; preds = %17, %12
  %22 = phi i1 [ false, %12 ], [ %20, %17 ]
  br i1 %22, label %23, label %30

23:                                               ; preds = %21
  %24 = load ptr, ptr %4, align 8, !tbaa !3
  %25 = load ptr, ptr %8, align 8, !tbaa !97
  %26 = getelementptr inbounds nuw %struct.smtp_conn, ptr %25, i32 0, i32 0
  %27 = load i8, ptr %6, align 1, !tbaa !83, !range !85, !noundef !86
  %28 = trunc i8 %27 to i1
  %29 = call i32 @Curl_pp_statemach(ptr noundef %24, ptr noundef %26, i1 noundef zeroext true, i1 noundef zeroext %28)
  store i32 %29, ptr %7, align 4, !tbaa !10
  br label %12, !llvm.loop !155

30:                                               ; preds = %21
  %31 = load i32, ptr %7, align 4, !tbaa !10
  call void @llvm.lifetime.end.p0(i64 8, ptr %8) #7
  call void @llvm.lifetime.end.p0(i64 4, ptr %7) #7
  ret i32 %31
}

; Function Attrs: nounwind uwtable
define internal void @smtp_state(ptr noundef %0, i32 noundef %1) #0 {
  %3 = alloca ptr, align 8
  %4 = alloca i32, align 4
  %5 = alloca ptr, align 8
  store ptr %0, ptr %3, align 8, !tbaa !3
  store i32 %1, ptr %4, align 4, !tbaa !10
  call void @llvm.lifetime.start.p0(i64 8, ptr %5) #7
  %6 = load ptr, ptr %3, align 8, !tbaa !3
  %7 = getelementptr inbounds nuw %struct.Curl_easy, ptr %6, i32 0, i32 3
  %8 = load ptr, ptr %7, align 8, !tbaa !87
  %9 = getelementptr inbounds nuw %struct.connectdata, ptr %8, i32 0, i32 43
  store ptr %9, ptr %5, align 8, !tbaa !97
  %10 = load ptr, ptr %5, align 8, !tbaa !97
  %11 = getelementptr inbounds nuw %struct.smtp_conn, ptr %10, i32 0, i32 2
  %12 = load i32, ptr %11, align 8, !tbaa !105
  %13 = load i32, ptr %4, align 4, !tbaa !10
  %14 = icmp ne i32 %12, %13
  br i1 %14, label %15, label %60

15:                                               ; preds = %2
  br label %16

16:                                               ; preds = %15
  %17 = load ptr, ptr %3, align 8, !tbaa !3
  %18 = icmp ne ptr %17, null
  br i1 %18, label %19, label %57

19:                                               ; preds = %16
  %20 = load ptr, ptr %3, align 8, !tbaa !3
  %21 = getelementptr inbounds nuw %struct.Curl_easy, ptr %20, i32 0, i32 16
  %22 = getelementptr inbounds nuw %struct.UserDefined, ptr %21, i32 0, i32 119
  %23 = load i64, ptr %22, align 2
  %24 = lshr i64 %23, 31
  %25 = and i64 %24, 1
  %26 = trunc i64 %25 to i32
  %27 = icmp ne i32 %26, 0
  br i1 %27, label %28, label %57

28:                                               ; preds = %19
  %29 = load ptr, ptr %3, align 8, !tbaa !3
  %30 = getelementptr inbounds nuw %struct.Curl_easy, ptr %29, i32 0, i32 21
  %31 = getelementptr inbounds nuw %struct.UrlState, ptr %30, i32 0, i32 50
  %32 = load ptr, ptr %31, align 8, !tbaa !12
  %33 = icmp ne ptr %32, null
  br i1 %33, label %34, label %42

34:                                               ; preds = %28
  %35 = load ptr, ptr %3, align 8, !tbaa !3
  %36 = getelementptr inbounds nuw %struct.Curl_easy, ptr %35, i32 0, i32 21
  %37 = getelementptr inbounds nuw %struct.UrlState, ptr %36, i32 0, i32 50
  %38 = load ptr, ptr %37, align 8, !tbaa !12
  %39 = getelementptr inbounds nuw %struct.curl_trc_feat, ptr %38, i32 0, i32 1
  %40 = load i32, ptr %39, align 8, !tbaa !79
  %41 = icmp sge i32 %40, 1
  br i1 %41, label %42, label %57

42:                                               ; preds = %34, %28
  %43 = load i32, ptr getelementptr inbounds nuw (%struct.curl_trc_feat, ptr @Curl_trc_feat_smtp, i32 0, i32 1), align 8, !tbaa !79
  %44 = icmp sge i32 %43, 1
  br i1 %44, label %45, label %57

45:                                               ; preds = %42
  %46 = load ptr, ptr %3, align 8, !tbaa !3
  %47 = load ptr, ptr %5, align 8, !tbaa !97
  %48 = getelementptr inbounds nuw %struct.smtp_conn, ptr %47, i32 0, i32 2
  %49 = load i32, ptr %48, align 8, !tbaa !105
  %50 = zext i32 %49 to i64
  %51 = getelementptr inbounds nuw [13 x ptr], ptr @smtp_state.names, i64 0, i64 %50
  %52 = load ptr, ptr %51, align 8, !tbaa !118
  %53 = load i32, ptr %4, align 4, !tbaa !10
  %54 = zext i32 %53 to i64
  %55 = getelementptr inbounds nuw [13 x ptr], ptr @smtp_state.names, i64 0, i64 %54
  %56 = load ptr, ptr %55, align 8, !tbaa !118
  call void (ptr, ptr, ...) @Curl_trc_smtp(ptr noundef %46, ptr noundef @.str.48, ptr noundef %52, ptr noundef %56)
  br label %57

57:                                               ; preds = %45, %42, %34, %19, %16
  br label %58

58:                                               ; preds = %57
  br label %59

59:                                               ; preds = %58
  br label %60

60:                                               ; preds = %59, %2
  %61 = load i32, ptr %4, align 4, !tbaa !10
  %62 = load ptr, ptr %5, align 8, !tbaa !97
  %63 = getelementptr inbounds nuw %struct.smtp_conn, ptr %62, i32 0, i32 2
  store i32 %61, ptr %63, align 8, !tbaa !105
  call void @llvm.lifetime.end.p0(i64 8, ptr %5) #7
  ret void
}

; Function Attrs: nounwind uwtable
define internal i32 @smtp_done(ptr noundef %0, i32 noundef %1, i1 noundef zeroext %2) #0 {
  %4 = alloca i32, align 4
  %5 = alloca ptr, align 8
  %6 = alloca i32, align 4
  %7 = alloca i8, align 1
  %8 = alloca i32, align 4
  %9 = alloca ptr, align 8
  %10 = alloca ptr, align 8
  %11 = alloca i32, align 4
  store ptr %0, ptr %5, align 8, !tbaa !3
  store i32 %1, ptr %6, align 4, !tbaa !10
  %12 = zext i1 %2 to i8
  store i8 %12, ptr %7, align 1, !tbaa !83
  call void @llvm.lifetime.start.p0(i64 4, ptr %8) #7
  store i32 0, ptr %8, align 4, !tbaa !10
  call void @llvm.lifetime.start.p0(i64 8, ptr %9) #7
  %13 = load ptr, ptr %5, align 8, !tbaa !3
  %14 = getelementptr inbounds nuw %struct.Curl_easy, ptr %13, i32 0, i32 3
  %15 = load ptr, ptr %14, align 8, !tbaa !87
  store ptr %15, ptr %9, align 8, !tbaa !8
  call void @llvm.lifetime.start.p0(i64 8, ptr %10) #7
  %16 = load ptr, ptr %5, align 8, !tbaa !3
  %17 = getelementptr inbounds nuw %struct.Curl_easy, ptr %16, i32 0, i32 15
  %18 = getelementptr inbounds nuw %struct.SingleRequest, ptr %17, i32 0, i32 23
  %19 = load ptr, ptr %18, align 8, !tbaa !88
  store ptr %19, ptr %10, align 8, !tbaa !89
  %20 = load ptr, ptr %10, align 8, !tbaa !89
  %21 = icmp ne ptr %20, null
  br i1 %21, label %23, label %22

22:                                               ; preds = %3
  store i32 0, ptr %4, align 4
  store i32 1, ptr %11, align 4
  br label %116

23:                                               ; preds = %3
  br label %24

24:                                               ; preds = %23
  %25 = load ptr, ptr @Curl_cfree, align 8, !tbaa !91
  %26 = load ptr, ptr %10, align 8, !tbaa !89
  %27 = getelementptr inbounds nuw %struct.SMTP, ptr %26, i32 0, i32 1
  %28 = load ptr, ptr %27, align 8, !tbaa !92
  call void %25(ptr noundef %28)
  %29 = load ptr, ptr %10, align 8, !tbaa !89
  %30 = getelementptr inbounds nuw %struct.SMTP, ptr %29, i32 0, i32 1
  store ptr null, ptr %30, align 8, !tbaa !92
  br label %31

31:                                               ; preds = %24
  br label %32

32:                                               ; preds = %31
  %33 = load i32, ptr %6, align 4, !tbaa !10
  %34 = icmp ne i32 %33, 0
  br i1 %34, label %35, label %38

35:                                               ; preds = %32
  %36 = load ptr, ptr %9, align 8, !tbaa !8
  call void @Curl_conncontrol(ptr noundef %36, i32 noundef 1)
  %37 = load i32, ptr %6, align 4, !tbaa !10
  store i32 %37, ptr %8, align 4, !tbaa !10
  br label %73

38:                                               ; preds = %32
  %39 = load ptr, ptr %5, align 8, !tbaa !3
  %40 = getelementptr inbounds nuw %struct.Curl_easy, ptr %39, i32 0, i32 16
  %41 = getelementptr inbounds nuw %struct.UserDefined, ptr %40, i32 0, i32 119
  %42 = load i64, ptr %41, align 2
  %43 = and i64 %42, 1
  %44 = trunc i64 %43 to i32
  %45 = icmp ne i32 %44, 0
  br i1 %45, label %72, label %46

46:                                               ; preds = %38
  %47 = load ptr, ptr %5, align 8, !tbaa !3
  %48 = getelementptr inbounds nuw %struct.Curl_easy, ptr %47, i32 0, i32 16
  %49 = getelementptr inbounds nuw %struct.UserDefined, ptr %48, i32 0, i32 106
  %50 = load ptr, ptr %49, align 8, !tbaa !94
  %51 = icmp ne ptr %50, null
  br i1 %51, label %52, label %72

52:                                               ; preds = %46
  %53 = load ptr, ptr %5, align 8, !tbaa !3
  %54 = getelementptr inbounds nuw %struct.Curl_easy, ptr %53, i32 0, i32 21
  %55 = getelementptr inbounds nuw %struct.UrlState, ptr %54, i32 0, i32 57
  %56 = load i32, ptr %55, align 4
  %57 = lshr i32 %56, 19
  %58 = and i32 %57, 1
  %59 = icmp ne i32 %58, 0
  br i1 %59, label %67, label %60

60:                                               ; preds = %52
  %61 = load ptr, ptr %5, align 8, !tbaa !3
  %62 = getelementptr inbounds nuw %struct.Curl_easy, ptr %61, i32 0, i32 16
  %63 = getelementptr inbounds nuw %struct.UserDefined, ptr %62, i32 0, i32 46
  %64 = getelementptr inbounds nuw %struct.curl_mimepart, ptr %63, i32 0, i32 2
  %65 = load i32, ptr %64, align 8, !tbaa !95
  %66 = icmp ne i32 %65, 0
  br i1 %66, label %67, label %72

67:                                               ; preds = %60, %52
  %68 = load ptr, ptr %5, align 8, !tbaa !3
  call void @smtp_state(ptr noundef %68, i32 noundef 11)
  %69 = load ptr, ptr %5, align 8, !tbaa !3
  %70 = load ptr, ptr %9, align 8, !tbaa !8
  %71 = call i32 @smtp_block_statemach(ptr noundef %69, ptr noundef %70, i1 noundef zeroext false)
  store i32 %71, ptr %8, align 4, !tbaa !10
  br label %72

72:                                               ; preds = %67, %60, %46, %38
  br label %73

73:                                               ; preds = %72, %35
  %74 = load ptr, ptr %10, align 8, !tbaa !89
  %75 = getelementptr inbounds nuw %struct.SMTP, ptr %74, i32 0, i32 0
  store i32 0, ptr %75, align 8, !tbaa !96
  br label %76

76:                                               ; preds = %73
  %77 = load ptr, ptr %5, align 8, !tbaa !3
  %78 = icmp ne ptr %77, null
  br i1 %78, label %79, label %112

79:                                               ; preds = %76
  %80 = load ptr, ptr %5, align 8, !tbaa !3
  %81 = getelementptr inbounds nuw %struct.Curl_easy, ptr %80, i32 0, i32 16
  %82 = getelementptr inbounds nuw %struct.UserDefined, ptr %81, i32 0, i32 119
  %83 = load i64, ptr %82, align 2
  %84 = lshr i64 %83, 31
  %85 = and i64 %84, 1
  %86 = trunc i64 %85 to i32
  %87 = icmp ne i32 %86, 0
  br i1 %87, label %88, label %112

88:                                               ; preds = %79
  %89 = load ptr, ptr %5, align 8, !tbaa !3
  %90 = getelementptr inbounds nuw %struct.Curl_easy, ptr %89, i32 0, i32 21
  %91 = getelementptr inbounds nuw %struct.UrlState, ptr %90, i32 0, i32 50
  %92 = load ptr, ptr %91, align 8, !tbaa !12
  %93 = icmp ne ptr %92, null
  br i1 %93, label %94, label %102

94:                                               ; preds = %88
  %95 = load ptr, ptr %5, align 8, !tbaa !3
  %96 = getelementptr inbounds nuw %struct.Curl_easy, ptr %95, i32 0, i32 21
  %97 = getelementptr inbounds nuw %struct.UrlState, ptr %96, i32 0, i32 50
  %98 = load ptr, ptr %97, align 8, !tbaa !12
  %99 = getelementptr inbounds nuw %struct.curl_trc_feat, ptr %98, i32 0, i32 1
  %100 = load i32, ptr %99, align 8, !tbaa !79
  %101 = icmp sge i32 %100, 1
  br i1 %101, label %102, label %112

102:                                              ; preds = %94, %88
  %103 = load i32, ptr getelementptr inbounds nuw (%struct.curl_trc_feat, ptr @Curl_trc_feat_smtp, i32 0, i32 1), align 8, !tbaa !79
  %104 = icmp sge i32 %103, 1
  br i1 %104, label %105, label %112

105:                                              ; preds = %102
  %106 = load ptr, ptr %5, align 8, !tbaa !3
  %107 = load i32, ptr %6, align 4, !tbaa !10
  %108 = load i8, ptr %7, align 1, !tbaa !83, !range !85, !noundef !86
  %109 = trunc i8 %108 to i1
  %110 = zext i1 %109 to i32
  %111 = load i32, ptr %8, align 4, !tbaa !10
  call void (ptr, ptr, ...) @Curl_trc_smtp(ptr noundef %106, ptr noundef @.str.49, i32 noundef %107, i32 noundef %110, i32 noundef %111)
  br label %112

112:                                              ; preds = %105, %102, %94, %79, %76
  br label %113

113:                                              ; preds = %112
  br label %114

114:                                              ; preds = %113
  %115 = load i32, ptr %8, align 4, !tbaa !10
  store i32 %115, ptr %4, align 4
  store i32 1, ptr %11, align 4
  br label %116

116:                                              ; preds = %114, %22
  call void @llvm.lifetime.end.p0(i64 8, ptr %10) #7
  call void @llvm.lifetime.end.p0(i64 8, ptr %9) #7
  call void @llvm.lifetime.end.p0(i64 4, ptr %8) #7
  %117 = load i32, ptr %4, align 4
  ret i32 %117
}