; Function Attrs: nounwind uwtable
define internal i32 @smtp_done(ptr noundef %0, i32 noundef %1, i1 noundef zeroext %2) #0 {
  %4 = getelementptr inbounds nuw i8, ptr %0, i64 24
  %5 = load ptr, ptr %4, align 8, !tbaa !90
  %6 = getelementptr inbounds nuw i8, ptr %0, i64 440
  %7 = load ptr, ptr %6, align 8, !tbaa !7
  %.not = icmp eq ptr %7, null
  br i1 %.not, label %69, label %8

8:                                                ; preds = %3
  %9 = load ptr, ptr @Curl_cfree, align 8, !tbaa !3
  %10 = getelementptr inbounds nuw i8, ptr %7, i64 8
  %11 = load ptr, ptr %10, align 8, !tbaa !110
  tail call void %9(ptr noundef %11) #9
  store ptr null, ptr %10, align 8, !tbaa !110
  %.not31 = icmp eq i32 %1, 0
  br i1 %.not31, label %13, label %12

12:                                               ; preds = %8
  tail call void @Curl_conncontrol(ptr noundef %5, i32 noundef 1) #9
  br label %smtp_block_statemach.exit.thread

13:                                               ; preds = %8
  %14 = getelementptr inbounds nuw i8, ptr %0, i64 2658
  %15 = load i64, ptr %14, align 2
  %16 = and i64 %15, 1
  %.not32 = icmp eq i64 %16, 0
  br i1 %.not32, label %17, label %smtp_block_statemach.exit.thread

17:                                               ; preds = %13
  %18 = getelementptr inbounds nuw i8, ptr %0, i64 2632
  %19 = load ptr, ptr %18, align 8, !tbaa !85
  %.not33 = icmp eq ptr %19, null
  br i1 %.not33, label %smtp_block_statemach.exit.thread, label %20

20:                                               ; preds = %17
  %21 = getelementptr inbounds nuw i8, ptr %0, i64 5036
  %22 = load i32, ptr %21, align 4
  %23 = and i32 %22, 524288
  %.not34 = icmp eq i32 %23, 0
  br i1 %.not34, label %24, label %27

24:                                               ; preds = %20
  %25 = getelementptr inbounds nuw i8, ptr %0, i64 848
  %26 = load i32, ptr %25, align 8, !tbaa !89
  %.not35 = icmp eq i32 %26, 0
  br i1 %.not35, label %smtp_block_statemach.exit.thread, label %27

27:                                               ; preds = %24, %20
  %28 = load ptr, ptr %4, align 8, !tbaa !90
  %29 = getelementptr inbounds nuw i8, ptr %28, i64 1280
  %30 = load i32, ptr %29, align 8, !tbaa !103
  %.not45 = icmp eq i32 %30, 11
  %31 = and i64 %15, 2147483648
  %.not.i = icmp eq i64 %31, 0
  %or.cond44 = or i1 %.not.i, %.not45
  br i1 %or.cond44, label %smtp_state.exit, label %32

32:                                               ; preds = %27
  %33 = getelementptr inbounds nuw i8, ptr %0, i64 4864
  %34 = load ptr, ptr %33, align 8, !tbaa !8
  %.not17.i = icmp eq ptr %34, null
  br i1 %.not17.i, label %41, label %35

35:                                               ; preds = %32
  %36 = getelementptr inbounds nuw i8, ptr %34, i64 8
  %37 = load i32, ptr %36, align 8, !tbaa !77
  %38 = icmp sgt i32 %37, 0
  %39 = load i32, ptr getelementptr inbounds nuw (i8, ptr @Curl_trc_feat_smtp, i64 8), align 8
  %40 = icmp sgt i32 %39, 0
  %or.cond.i = select i1 %38, i1 %40, i1 false
  br i1 %or.cond.i, label %42, label %smtp_state.exit

41:                                               ; preds = %32
  %.old.i = load i32, ptr getelementptr inbounds nuw (i8, ptr @Curl_trc_feat_smtp, i64 8), align 8, !tbaa !77
  %.old1.i = icmp sgt i32 %.old.i, 0
  br i1 %.old1.i, label %42, label %smtp_state.exit

42:                                               ; preds = %41, %35
  %43 = zext i32 %30 to i64
  %44 = getelementptr inbounds nuw [13 x ptr], ptr @smtp_state.names, i64 0, i64 %43
  %45 = load ptr, ptr %44, align 8, !tbaa !81
  tail call void (ptr, ptr, ...) @Curl_trc_smtp(ptr noundef nonnull %0, ptr noundef nonnull @.str.48, ptr noundef %45, ptr noundef nonnull @.str.46) #9
  br label %smtp_state.exit

smtp_state.exit:                                  ; preds = %27, %35, %41, %42
  store i32 11, ptr %29, align 8, !tbaa !103
  %46 = getelementptr inbounds nuw i8, ptr %5, i64 1088
  %47 = getelementptr inbounds nuw i8, ptr %5, i64 1280
  %48 = load i32, ptr %47, align 8, !tbaa !103
  %.not6.i = icmp eq i32 %48, 0
  br i1 %.not6.i, label %smtp_block_statemach.exit.thread, label %.lr.ph.i

.lr.ph.i:                                         ; preds = %smtp_state.exit, %.lr.ph.i
  %49 = tail call i32 @Curl_pp_statemach(ptr noundef %0, ptr noundef nonnull %46, i1 noundef zeroext true, i1 noundef zeroext false) #9
  %50 = load i32, ptr %47, align 8, !tbaa !103
  %51 = icmp ne i32 %50, 0
  %.not.i39 = icmp eq i32 %49, 0
  %52 = select i1 %51, i1 %.not.i39, i1 false
  br i1 %52, label %.lr.ph.i, label %smtp_block_statemach.exit, !llvm.loop !111

smtp_block_statemach.exit.thread:                 ; preds = %smtp_state.exit, %13, %17, %24, %12
  store i32 0, ptr %7, align 8, !tbaa !83
  br label %53

smtp_block_statemach.exit:                        ; preds = %.lr.ph.i
  store i32 0, ptr %7, align 8, !tbaa !83
  %.not36 = icmp eq ptr %0, null
  br i1 %.not36, label %69, label %53

53:                                               ; preds = %smtp_block_statemach.exit.thread, %smtp_block_statemach.exit
  %.02642 = phi i32 [ %1, %smtp_block_statemach.exit.thread ], [ %49, %smtp_block_statemach.exit ]
  %54 = getelementptr inbounds nuw i8, ptr %0, i64 2658
  %55 = load i64, ptr %54, align 2
  %56 = and i64 %55, 2147483648
  %.not37 = icmp eq i64 %56, 0
  br i1 %.not37, label %69, label %57

57:                                               ; preds = %53
  %58 = getelementptr inbounds nuw i8, ptr %0, i64 4864
  %59 = load ptr, ptr %58, align 8, !tbaa !8
  %.not38 = icmp eq ptr %59, null
  br i1 %.not38, label %66, label %60

60:                                               ; preds = %57
  %61 = getelementptr inbounds nuw i8, ptr %59, i64 8
  %62 = load i32, ptr %61, align 8, !tbaa !77
  %63 = icmp sgt i32 %62, 0
  %64 = load i32, ptr getelementptr inbounds nuw (i8, ptr @Curl_trc_feat_smtp, i64 8), align 8
  %65 = icmp sgt i32 %64, 0
  %or.cond = select i1 %63, i1 %65, i1 false
  br i1 %or.cond, label %67, label %69

66:                                               ; preds = %57
  %.old = load i32, ptr getelementptr inbounds nuw (i8, ptr @Curl_trc_feat_smtp, i64 8), align 8, !tbaa !77
  %.old1 = icmp sgt i32 %.old, 0
  br i1 %.old1, label %67, label %69

67:                                               ; preds = %60, %66
  %68 = zext i1 %2 to i32
  tail call void (ptr, ptr, ...) @Curl_trc_smtp(ptr noundef nonnull %0, ptr noundef nonnull @.str.49, i32 noundef %1, i32 noundef %68, i32 noundef %.02642) #9
  br label %69

69:                                               ; preds = %smtp_block_statemach.exit, %53, %60, %66, %67, %3
  %.0 = phi i32 [ 0, %3 ], [ %.02642, %67 ], [ %.02642, %66 ], [ %.02642, %60 ], [ %.02642, %53 ], [ %49, %smtp_block_statemach.exit ]
  ret i32 %.0
}